(dp1
S'output'
p2
S"<type 'exceptions.TypeError'> cannot concatenate 'str' and 'int' objects"
p3
sS'layer'
p4
S'C:\\Users\\Chubblezap\\web2py\\applications\\RivalsTourneyWatch\\controllers/api.py'
p5
sS'code'
p6
S'<code object <module> at 000000000AE93530, file "C:\\Users\\Chubblezap\\web2py\\applications\\RivalsTourneyWatch\\controllers/api.py", line 1>'
p7
sS'snapshot'
p8
(dp9
S'exception'
p10
(dp11
S'__getslice__'
p12
S"<method-wrapper '__getslice__' of exceptions.TypeError object>"
p13
sS'__str__'
p14
S"<method-wrapper '__str__' of exceptions.TypeError object>"
p15
sS'__reduce__'
p16
S'<built-in method __reduce__ of exceptions.TypeError object>'
p17
sS'__dict__'
p18
S'{}'
p19
sS'message'
p20
S'"cannot concatenate \'str\' and \'int\' objects"'
p21
sS'__sizeof__'
p22
S'<built-in method __sizeof__ of exceptions.TypeError object>'
p23
sS'__init__'
p24
S"<method-wrapper '__init__' of exceptions.TypeError object>"
p25
sS'__setattr__'
p26
S"<method-wrapper '__setattr__' of exceptions.TypeError object>"
p27
sS'__reduce_ex__'
p28
S'<built-in method __reduce_ex__ of exceptions.TypeError object>'
p29
sS'__new__'
p30
S'<built-in method __new__ of type object>'
p31
sS'__format__'
p32
S'<built-in method __format__ of exceptions.TypeError object>'
p33
sS'__class__'
p34
S"<type 'exceptions.TypeError'>"
p35
sS'__doc__'
p36
S"'Inappropriate argument type.'"
p37
sS'__getitem__'
p38
S"<method-wrapper '__getitem__' of exceptions.TypeError object>"
p39
sS'__setstate__'
p40
S'<built-in method __setstate__ of exceptions.TypeError object>'
p41
sS'__getattribute__'
p42
S"<method-wrapper '__getattribute__' of exceptions.TypeError object>"
p43
sS'args'
p44
S'("cannot concatenate \'str\' and \'int\' objects",)'
p45
sS'__subclasshook__'
p46
S'<built-in method __subclasshook__ of type object>'
p47
sS'__unicode__'
p48
S'<built-in method __unicode__ of exceptions.TypeError object>'
p49
sS'__delattr__'
p50
S"<method-wrapper '__delattr__' of exceptions.TypeError object>"
p51
sS'__repr__'
p52
S"<method-wrapper '__repr__' of exceptions.TypeError object>"
p53
sS'__hash__'
p54
S"<method-wrapper '__hash__' of exceptions.TypeError object>"
p55
ssS'evalue'
p56
S"cannot concatenate 'str' and 'int' objects"
p57
sS'request'
p58
cgluon.html
XML_unpickle
p59
(S's b\x00\x00<div><table><tr><td style="font-weight:bold;vertical-align:top;">ajax</td><td style="vertical-align:top;">:</td><td><div>True</div></td></tr><tr><td style="font-weight:bold;vertical-align:top;">application</td><td style="vertical-align:top;">:</td><td><div>RivalsTourneyWatch</div></td></tr><tr><td style="font-weight:bold;vertical-align:top;">args</td><td style="vertical-align:top;">:</td><td><div><table></table></div></td></tr><tr><td style="font-weight:bold;vertical-align:top;">cid</td><td style="vertical-align:top;">:</td><td><div>None</div></td></tr><tr><td style="font-weight:bold;vertical-align:top;">client</td><td style="vertical-align:top;">:</td><td><div>127.0.0.1</div></td></tr><tr><td style="font-weight:bold;vertical-align:top;">controller</td><td style="vertical-align:top;">:</td><td><div>api</div></td></tr><tr><td style="font-weight:bold;vertical-align:top;">cookies</td><td style="vertical-align:top;">:</td><td><div><table><tr><td style="font-weight:bold;vertical-align:top;">session_id_admin</td><td style="vertical-align:top;">:</td><td><div>127.0.0.1-ef4d6863-01da-4d5a-9e27-d1a9b3c35c38<table><tr><td style="font-weight:bold;vertical-align:top;">comment</td><td style="vertical-align:top;">:</td><td><div></div></td></tr><tr><td style="font-weight:bold;vertical-align:top;">domain</td><td style="vertical-align:top;">:</td><td><div></div></td></tr><tr><td style="font-weight:bold;vertical-align:top;">expires</td><td style="vertical-align:top;">:</td><td><div></div></td></tr><tr><td style="font-weight:bold;vertical-align:top;">httponly</td><td style="vertical-align:top;">:</td><td><div></div></td></tr><tr><td style="font-weight:bold;vertical-align:top;">max-age</td><td style="vertical-align:top;">:</td><td><div></div></td></tr><tr><td style="font-weight:bold;vertical-align:top;">path</td><td style="vertical-align:top;">:</td><td><div></div></td></tr><tr><td style="font-weight:bold;vertical-align:top;">secure</td><td style="vertical-align:top;">:</td><td><div></div></td></tr><tr><td style="font-weight:bold;vertical-align:top;">version</td><td style="vertical-align:top;">:</td><td><div></div></td></tr></table></div></td></tr><tr><td style="font-weight:bold;vertical-align:top;">session_id_backend</td><td style="vertical-align:top;">:</td><td><div>127.0.0.1-b358ca7b-9872-4a18-9d56-acaafb1ead5d<table><tr><td style="font-weight:bold;vertical-align:top;">comment</td><td style="vertical-align:top;">:</td><td><div></div></td></tr><tr><td style="font-weight:bold;vertical-align:top;">domain</td><td style="vertical-align:top;">:</td><td><div></div></td></tr><tr><td style="font-weight:bold;vertical-align:top;">expires</td><td style="vertical-align:top;">:</td><td><div></div></td></tr><tr><td style="font-weight:bold;vertical-align:top;">httponly</td><td style="vertical-align:top;">:</td><td><div></div></td></tr><tr><td style="font-weight:bold;vertical-align:top;">max-age</td><td style="vertical-align:top;">:</td><td><div></div></td></tr><tr><td style="font-weight:bold;vertical-align:top;">path</td><td style="vertical-align:top;">:</td><td><div></div></td></tr><tr><td style="font-weight:bold;vertical-align:top;">secure</td><td style="vertical-align:top;">:</td><td><div></div></td></tr><tr><td style="font-weight:bold;vertical-align:top;">version</td><td style="vertical-align:top;">:</td><td><div></div></td></tr></table></div></td></tr><tr><td style="font-weight:bold;vertical-align:top;">session_id_rivalstourneywatch</td><td style="vertical-align:top;">:</td><td><div>3:bb017aec-6934-45a7-b0d1-24117cd39c3e<table><tr><td style="font-weight:bold;vertical-align:top;">comment</td><td style="vertical-align:top;">:</td><td><div></div></td></tr><tr><td style="font-weight:bold;vertical-align:top;">domain</td><td style="vertical-align:top;">:</td><td><div></div></td></tr><tr><td style="font-weight:bold;vertical-align:top;">expires</td><td style="vertical-align:top;">:</td><td><div></div></td></tr><tr><td style="font-weight:bold;vertical-align:top;">httponly</td><td style="vertical-align:top;">:</td><td><div></div></td></tr><tr><td style="font-weight:bold;vertical-align:top;">max-age</td><td style="vertical-align:top;">:</td><td><div></div></td></tr><tr><td style="font-weight:bold;vertical-align:top;">path</td><td style="vertical-align:top;">:</td><td><div></div></td></tr><tr><td style="font-weight:bold;vertical-align:top;">secure</td><td style="vertical-align:top;">:</td><td><div></div></td></tr><tr><td style="font-weight:bold;vertical-align:top;">version</td><td style="vertical-align:top;">:</td><td><div></div></td></tr></table></div></td></tr></table></div></td></tr><tr><td style="font-weight:bold;vertical-align:top;">env</td><td style="vertical-align:top;">:</td><td><div><table><tr><td style="font-weight:bold;vertical-align:top;">HTTP_ACCEPT</td><td style="vertical-align:top;">:</td><td><div>application/json, text/javascript, */*; q=0.01</div></td></tr><tr><td style="font-weight:bold;vertical-align:top;">HTTP_ACCEPT_ENCODING</td><td style="vertical-align:top;">:</td><td><div>gzip, deflate, br</div></td></tr><tr><td style="font-weight:bold;vertical-align:top;">HTTP_ACCEPT_LANGUAGE</td><td style="vertical-align:top;">:</td><td><div>en-US,en;q=0.9</div></td></tr><tr><td style="font-weight:bold;vertical-align:top;">HTTP_CACHE_CONTROL</td><td style="vertical-align:top;">:</td><td><div>no-cache</div></td></tr><tr><td style="font-weight:bold;vertical-align:top;">HTTP_CONNECTION</td><td style="vertical-align:top;">:</td><td><div>keep-alive</div></td></tr><tr><td style="font-weight:bold;vertical-align:top;">HTTP_COOKIE</td><td style="vertical-align:top;">:</td><td><div>session_id_backend=127.0.0.1-b358ca7b-9872-4a18-9d56-acaafb1ead5d; session_id_admin=127.0.0.1-ef4d6863-01da-4d5a-9e27-d1a9b3c35c38; session_id_rivalstourneywatch=&quot;3:bb017aec-6934-45a7-b0d1-24117cd39c3e&quot;</div></td></tr><tr><td style="font-weight:bold;vertical-align:top;">HTTP_HOST</td><td style="vertical-align:top;">:</td><td><div>127.0.0.1:8000</div></td></tr><tr><td style="font-weight:bold;vertical-align:top;">HTTP_PRAGMA</td><td style="vertical-align:top;">:</td><td><div>no-cache</div></td></tr><tr><td style="font-weight:bold;vertical-align:top;">HTTP_REFERER</td><td style="vertical-align:top;">:</td><td><div>http://127.0.0.1:8000/RivalsTourneyWatch</div></td></tr><tr><td style="font-weight:bold;vertical-align:top;">HTTP_USER_AGENT</td><td style="vertical-align:top;">:</td><td><div>Mozilla/5.0 (Windows NT 6.1; Win64; x64) AppleWebKit/537.36 (KHTML, like Gecko) Chrome/67.0.3396.79 Safari/537.36</div></td></tr><tr><td style="font-weight:bold;vertical-align:top;">HTTP_X_REQUESTED_WITH</td><td style="vertical-align:top;">:</td><td><div>XMLHttpRequest</div></td></tr><tr><td style="font-weight:bold;vertical-align:top;">PATH_INFO</td><td style="vertical-align:top;">:</td><td><div>/RivalsTourneyWatch/api/get_tourneys</div></td></tr><tr><td style="font-weight:bold;vertical-align:top;">QUERY_STRING</td><td style="vertical-align:top;">:</td><td><div>t=rivals-championship-series</div></td></tr><tr><td style="font-weight:bold;vertical-align:top;">REMOTE_ADDR</td><td style="vertical-align:top;">:</td><td><div>127.0.0.1</div></td></tr><tr><td style="font-weight:bold;vertical-align:top;">REMOTE_PORT</td><td style="vertical-align:top;">:</td><td><div>62119</div></td></tr><tr><td style="font-weight:bold;vertical-align:top;">REQUEST_METHOD</td><td style="vertical-align:top;">:</td><td><div>GET</div></td></tr><tr><td style="font-weight:bold;vertical-align:top;">SCRIPT_NAME</td><td style="vertical-align:top;">:</td><td><div></div></td></tr><tr><td style="font-weight:bold;vertical-align:top;">SERVER_NAME</td><td style="vertical-align:top;">:</td><td><div>Star_Destroyer</div></td></tr><tr><td style="font-weight:bold;vertical-align:top;">SERVER_PORT</td><td style="vertical-align:top;">:</td><td><div>8000</div></td></tr><tr><td style="font-weight:bold;vertical-align:top;">SERVER_PROTOCOL</td><td style="vertical-align:top;">:</td><td><div>HTTP/1.1</div></td></tr><tr><td style="font-weight:bold;vertical-align:top;">SERVER_SOFTWARE</td><td style="vertical-align:top;">:</td><td><div>Rocket 1.2.6</div></td></tr><tr><td style="font-weight:bold;vertical-align:top;">app_folders</td><td style="vertical-align:top;">:</td><td><div>set([&#x27;C:\\\\Users\\\\Chubblezap\\\\web2py\\\\applications\\\\admin\\\\&#x27;, &#x27;C:\\\\Users\\\\Chubblezap\\\\web2py\\\\applications\\\\RivalsTourneyWatch\\\\&#x27;, &#x27;C:\\\\Users\\\\Chubblezap\\\\web2py\\\\applications\\\\backend\\\\&#x27;])</div></td></tr><tr><td style="font-weight:bold;vertical-align:top;">applications_parent</td><td style="vertical-align:top;">:</td><td><div>C:\\Users\\Chubblezap\\web2py</div></td></tr><tr><td style="font-weight:bold;vertical-align:top;">cmd_args</td><td style="vertical-align:top;">:</td><td><div><table></table></div></td></tr><tr><td style="font-weight:bold;vertical-align:top;">cmd_options</td><td style="vertical-align:top;">:</td><td><div>&lt;Values at 0x407e1c8: {&#x27;verbose&#x27;: False, &#x27;ip&#x27;: &#x27;127.0.0.1&#x27;, &#x27;debuglevel&#x27;: 30, &#x27;with_scheduler&#x27;: False, &#x27;shutdown_timeout&#x27;: 5, &#x27;taskbar&#x27;: False, &#x27;with_coverage&#x27;: False, &#x27;pid_filename&#x27;: &#x27;httpserver.pid&#x27;, &#x27;maxthreads&#x27;: None, &#x27;softcron&#x27;: False, &#x27;server_name&#x27;: &#x27;Star_Destroyer&#x27;, &#x27;bpython&#x27;: False, &#x27;nogui&#x27;: False, &#x27;port&#x27;: 8000, &#x27;print_errors&#x27;: False, &#x27;extcron&#x27;: False, &#x27;runcron&#x27;: False, &#x27;run_system_tests&#x27;: False, &#x27;test&#x27;: None, &#x27;folder&#x27;: &#x27;C:\\\\Users\\\\Chubblezap\\\\web2py&#x27;, &#x27;config&#x27;: &#x27;&#x27;, &#x27;minthreads&#x27;: None, &#x27;shell&#x27;: None, &#x27;run&#x27;: &#x27;&#x27;, &#x27;log_filename&#x27;: &#x27;httpserver.log&#x27;, &#x27;profiler_dir&#x27;: None, &#x27;args&#x27;: [&#x27;&#x27;], &#x27;socket_timeout&#x27;: 5, &#x27;ssl_ca_certificate&#x27;: None, &#x27;scheduler&#x27;: None, &#x27;interfaces&#x27;: None, &#x27;ssl_private_key&#x27;: &#x27;&#x27;, &#x27;gae&#x27;: None, &#x27;password&#x27;: &#x27;******&#x27;, &#x27;request_queue_size&#x27;: 5, &#x27;ssl_certificate&#x27;: &#x27;&#x27;, &#x27;cronjob&#x27;: False, &#x27;numthreads&#x27;: None, &#x27;quiet&#x27;: False, &#x27;import_models&#x27;: False, &#x27;timeout&#x27;: 10, &#x27;plain&#x27;: False, &#x27;nobanner&#x27;: False}&gt;</div></td></tr><tr><td style="font-weight:bold;vertical-align:top;">db_sessions</td><td style="vertical-align:top;">:</td><td><div>set([&#x27;RivalsTourneyWatch&#x27;])</div></td></tr><tr><td style="font-weight:bold;vertical-align:top;">debugging</td><td style="vertical-align:top;">:</td><td><div>True</div></td></tr><tr><td style="font-weight:bold;vertical-align:top;">gluon_parent</td><td style="vertical-align:top;">:</td><td><div>C:\\Users\\Chubblezap\\web2py</div></td></tr><tr><td style="font-weight:bold;vertical-align:top;">http_accept</td><td style="vertical-align:top;">:</td><td><div>application/json, text/javascript, */*; q=0.01</div></td></tr><tr><td style="font-weight:bold;vertical-align:top;">http_accept_encoding</td><td style="vertical-align:top;">:</td><td><div>gzip, deflate, br</div></td></tr><tr><td style="font-weight:bold;vertical-align:top;">http_accept_language</td><td style="vertical-align:top;">:</td><td><div>en-US,en;q=0.9</div></td></tr><tr><td style="font-weight:bold;vertical-align:top;">http_cache_control</td><td style="vertical-align:top;">:</td><td><div>no-cache</div></td></tr><tr><td style="font-weight:bold;vertical-align:top;">http_connection</td><td style="vertical-align:top;">:</td><td><div>keep-alive</div></td></tr><tr><td style="font-weight:bold;vertical-align:top;">http_cookie</td><td style="vertical-align:top;">:</td><td><div>session_id_backend=127.0.0.1-b358ca7b-9872-4a18-9d56-acaafb1ead5d; session_id_admin=127.0.0.1-ef4d6863-01da-4d5a-9e27-d1a9b3c35c38; session_id_rivalstourneywatch=&quot;3:bb017aec-6934-45a7-b0d1-24117cd39c3e&quot;</div></td></tr><tr><td style="font-weight:bold;vertical-align:top;">http_host</td><td style="vertical-align:top;">:</td><td><div>127.0.0.1:8000</div></td></tr><tr><td style="font-weight:bold;vertical-align:top;">http_pragma</td><td style="vertical-align:top;">:</td><td><div>no-cache</div></td></tr><tr><td style="font-weight:bold;vertical-align:top;">http_referer</td><td style="vertical-align:top;">:</td><td><div>http://127.0.0.1:8000/RivalsTourneyWatch</div></td></tr><tr><td style="font-weight:bold;vertical-align:top;">http_user_agent</td><td style="vertical-align:top;">:</td><td><div>Mozilla/5.0 (Windows NT 6.1; Win64; x64) AppleWebKit/537.36 (KHTML, like Gecko) Chrome/67.0.3396.79 Safari/537.36</div></td></tr><tr><td style="font-weight:bold;vertical-align:top;">http_x_requested_with</td><td style="vertical-align:top;">:</td><td><div>XMLHttpRequest</div></td></tr><tr><td style="font-weight:bold;vertical-align:top;">is_jython</td><td style="vertical-align:top;">:</td><td><div>False</div></td></tr><tr><td style="font-weight:bold;vertical-align:top;">is_py2</td><td style="vertical-align:top;">:</td><td><div>True</div></td></tr><tr><td style="font-weight:bold;vertical-align:top;">is_pypy</td><td style="vertical-align:top;">:</td><td><div>False</div></td></tr><tr><td style="font-weight:bold;vertical-align:top;">is_source</td><td style="vertical-align:top;">:</td><td><div>True</div></td></tr><tr><td style="font-weight:bold;vertical-align:top;">local_hosts</td><td style="vertical-align:top;">:</td><td><div><table><tr><td><div>fe80::d0d0:223e:d3a5:166a%11</div></td></tr><tr><td><div>169.233.80.143</div></td></tr><tr><td><div>::ffff:127.0.0.1</div></td></tr><tr><td><div>::1</div></td></tr><tr><td><div>fe80::200:5efe:169.233.80.143%20</div></td></tr><tr><td><div>fe80::1c3a:5789:3ace:b57b%13</div></td></tr><tr><td><div>Star_Destroyer</div></td></tr><tr><td><div>25.51.6.231</div></td></tr><tr><td><div>Star_Destroyer.ucsc.edu</div></td></tr><tr><td><div>2620:9b::1933:6e7</div></td></tr><tr><td><div>127.0.0.1</div></td></tr></table></div></td></tr><tr><td style="font-weight:bold;vertical-align:top;">path_info</td><td style="vertical-align:top;">:</td><td><div>/RivalsTourneyWatch/api/get_tourneys</div></td></tr><tr><td style="font-weight:bold;vertical-align:top;">query_string</td><td style="vertical-align:top;">:</td><td><div>t=rivals-championship-series</div></td></tr><tr><td style="font-weight:bold;vertical-align:top;">remote_addr</td><td style="vertical-align:top;">:</td><td><div>127.0.0.1</div></td></tr><tr><td style="font-weight:bold;vertical-align:top;">remote_port</td><td style="vertical-align:top;">:</td><td><div>62119</div></td></tr><tr><td style="font-weight:bold;vertical-align:top;">request_method</td><td style="vertical-align:top;">:</td><td><div>GET</div></td></tr><tr><td style="font-weight:bold;vertical-align:top;">request_uri</td><td style="vertical-align:top;">:</td><td><div>/RivalsTourneyWatch/api/get_tourneys?t=rivals-championship-series</div></td></tr><tr><td style="font-weight:bold;vertical-align:top;">script_name</td><td style="vertical-align:top;">:</td><td><div></div></td></tr><tr><td style="font-weight:bold;vertical-align:top;">server_name</td><td style="vertical-align:top;">:</td><td><div>Star_Destroyer</div></td></tr><tr><td style="font-weight:bold;vertical-align:top;">server_port</td><td style="vertical-align:top;">:</td><td><div>8000</div></td></tr><tr><td style="font-weight:bold;vertical-align:top;">server_protocol</td><td style="vertical-align:top;">:</td><td><div>HTTP/1.1</div></td></tr><tr><td style="font-weight:bold;vertical-align:top;">server_software</td><td style="vertical-align:top;">:</td><td><div>Rocket 1.2.6</div></td></tr><tr><td style="font-weight:bold;vertical-align:top;">web2py_original_uri</td><td style="vertical-align:top;">:</td><td><div>/RivalsTourneyWatch/api/get_tourneys?t=rivals-championship-series</div></td></tr><tr><td style="font-weight:bold;vertical-align:top;">web2py_path</td><td style="vertical-align:top;">:</td><td><div>C:\\Users\\Chubblezap\\web2py</div></td></tr><tr><td style="font-weight:bold;vertical-align:top;">web2py_version</td><td style="vertical-align:top;">:</td><td><div>2.16.1-stable+timestamp.2017.11.14.05.54.25</div></td></tr><tr><td style="font-weight:bold;vertical-align:top;">wsgi.errors</td><td style="vertical-align:top;">:</td><td><div>&lt;open file &#x27;&lt;stderr&gt;&#x27;, mode &#x27;w&#x27; at 0x0000000001D52150&gt;</div></td></tr><tr><td style="font-weight:bold;vertical-align:top;">wsgi.file_wrapper</td><td style="vertical-align:top;">:</td><td><div>&lt;class wsgiref.util.FileWrapper at 0x00000000040073A8&gt;</div></td></tr><tr><td style="font-weight:bold;vertical-align:top;">wsgi.input</td><td style="vertical-align:top;">:</td><td><div>&lt;socket._fileobject object at 0x000000000B1FB0C0&gt;</div></td></tr><tr><td style="font-weight:bold;vertical-align:top;">wsgi.multiprocess</td><td style="vertical-align:top;">:</td><td><div>False</div></td></tr><tr><td style="font-weight:bold;vertical-align:top;">wsgi.multithread</td><td style="vertical-align:top;">:</td><td><div>True</div></td></tr><tr><td style="font-weight:bold;vertical-align:top;">wsgi.run_once</td><td style="vertical-align:top;">:</td><td><div>False</div></td></tr><tr><td style="font-weight:bold;vertical-align:top;">wsgi.url_scheme</td><td style="vertical-align:top;">:</td><td><div>http</div></td></tr><tr><td style="font-weight:bold;vertical-align:top;">wsgi.version</td><td style="vertical-align:top;">:</td><td><div><table><tr><td><div>1</div></td></tr><tr><td><div>0</div></td></tr></table></div></td></tr><tr><td style="font-weight:bold;vertical-align:top;">wsgi_errors</td><td style="vertical-align:top;">:</td><td><div>&lt;open file &#x27;&lt;stderr&gt;&#x27;, mode &#x27;w&#x27; at 0x0000000001D52150&gt;</div></td></tr><tr><td style="font-weight:bold;vertical-align:top;">wsgi_file_wrapper</td><td style="vertical-align:top;">:</td><td><div>&lt;class wsgiref.util.FileWrapper at 0x00000000040073A8&gt;</div></td></tr><tr><td style="font-weight:bold;vertical-align:top;">wsgi_input</td><td style="vertical-align:top;">:</td><td><div>&lt;socket._fileobject object at 0x000000000B1FB0C0&gt;</div></td></tr><tr><td style="font-weight:bold;vertical-align:top;">wsgi_multiprocess</td><td style="vertical-align:top;">:</td><td><div>False</div></td></tr><tr><td style="font-weight:bold;vertical-align:top;">wsgi_multithread</td><td style="vertical-align:top;">:</td><td><div>True</div></td></tr><tr><td style="font-weight:bold;vertical-align:top;">wsgi_run_once</td><td style="vertical-align:top;">:</td><td><div>False</div></td></tr><tr><td style="font-weight:bold;vertical-align:top;">wsgi_url_scheme</td><td style="vertical-align:top;">:</td><td><div>http</div></td></tr><tr><td style="font-weight:bold;vertical-align:top;">wsgi_version</td><td style="vertical-align:top;">:</td><td><div><table><tr><td><div>1</div></td></tr><tr><td><div>0</div></td></tr></table></div></td></tr></table></div></td></tr><tr><td style="font-weight:bold;vertical-align:top;">extension</td><td style="vertical-align:top;">:</td><td><div>html</div></td></tr><tr><td style="font-weight:bold;vertical-align:top;">folder</td><td style="vertical-align:top;">:</td><td><div>C:\\Users\\Chubblezap\\web2py\\applications\\RivalsTourneyWatch\\</div></td></tr><tr><td style="font-weight:bold;vertical-align:top;">function</td><td style="vertical-align:top;">:</td><td><div>get_tourneys</div></td></tr><tr><td style="font-weight:bold;vertical-align:top;">global_settings</td><td style="vertical-align:top;">:</td><td><div><table><tr><td style="font-weight:bold;vertical-align:top;">app_folders</td><td style="vertical-align:top;">:</td><td><div>set([&#x27;C:\\\\Users\\\\Chubblezap\\\\web2py\\\\applications\\\\admin\\\\&#x27;, &#x27;C:\\\\Users\\\\Chubblezap\\\\web2py\\\\applications\\\\RivalsTourneyWatch\\\\&#x27;, &#x27;C:\\\\Users\\\\Chubblezap\\\\web2py\\\\applications\\\\backend\\\\&#x27;])</div></td></tr><tr><td style="font-weight:bold;vertical-align:top;">applications_parent</td><td style="vertical-align:top;">:</td><td><div>C:\\Users\\Chubblezap\\web2py</div></td></tr><tr><td style="font-weight:bold;vertical-align:top;">cmd_args</td><td style="vertical-align:top;">:</td><td><div><table></table></div></td></tr><tr><td style="font-weight:bold;vertical-align:top;">cmd_options</td><td style="vertical-align:top;">:</td><td><div>&lt;Values at 0x407e1c8: {&#x27;verbose&#x27;: False, &#x27;ip&#x27;: &#x27;127.0.0.1&#x27;, &#x27;debuglevel&#x27;: 30, &#x27;with_scheduler&#x27;: False, &#x27;shutdown_timeout&#x27;: 5, &#x27;taskbar&#x27;: False, &#x27;with_coverage&#x27;: False, &#x27;pid_filename&#x27;: &#x27;httpserver.pid&#x27;, &#x27;maxthreads&#x27;: None, &#x27;softcron&#x27;: False, &#x27;server_name&#x27;: &#x27;Star_Destroyer&#x27;, &#x27;bpython&#x27;: False, &#x27;nogui&#x27;: False, &#x27;port&#x27;: 8000, &#x27;print_errors&#x27;: False, &#x27;extcron&#x27;: False, &#x27;runcron&#x27;: False, &#x27;run_system_tests&#x27;: False, &#x27;test&#x27;: None, &#x27;folder&#x27;: &#x27;C:\\\\Users\\\\Chubblezap\\\\web2py&#x27;, &#x27;config&#x27;: &#x27;&#x27;, &#x27;minthreads&#x27;: None, &#x27;shell&#x27;: None, &#x27;run&#x27;: &#x27;&#x27;, &#x27;log_filename&#x27;: &#x27;httpserver.log&#x27;, &#x27;profiler_dir&#x27;: None, &#x27;args&#x27;: [&#x27;&#x27;], &#x27;socket_timeout&#x27;: 5, &#x27;ssl_ca_certificate&#x27;: None, &#x27;scheduler&#x27;: None, &#x27;interfaces&#x27;: None, &#x27;ssl_private_key&#x27;: &#x27;&#x27;, &#x27;gae&#x27;: None, &#x27;password&#x27;: &#x27;******&#x27;, &#x27;request_queue_size&#x27;: 5, &#x27;ssl_certificate&#x27;: &#x27;&#x27;, &#x27;cronjob&#x27;: False, &#x27;numthreads&#x27;: None, &#x27;quiet&#x27;: False, &#x27;import_models&#x27;: False, &#x27;timeout&#x27;: 10, &#x27;plain&#x27;: False, &#x27;nobanner&#x27;: False}&gt;</div></td></tr><tr><td style="font-weight:bold;vertical-align:top;">db_sessions</td><td style="vertical-align:top;">:</td><td><div>set([&#x27;RivalsTourneyWatch&#x27;])</div></td></tr><tr><td style="font-weight:bold;vertical-align:top;">debugging</td><td style="vertical-align:top;">:</td><td><div>True</div></td></tr><tr><td style="font-weight:bold;vertical-align:top;">gluon_parent</td><td style="vertical-align:top;">:</td><td><div>C:\\Users\\Chubblezap\\web2py</div></td></tr><tr><td style="font-weight:bold;vertical-align:top;">is_jython</td><td style="vertical-align:top;">:</td><td><div>False</div></td></tr><tr><td style="font-weight:bold;vertical-align:top;">is_py2</td><td style="vertical-align:top;">:</td><td><div>True</div></td></tr><tr><td style="font-weight:bold;vertical-align:top;">is_pypy</td><td style="vertical-align:top;">:</td><td><div>False</div></td></tr><tr><td style="font-weight:bold;vertical-align:top;">is_source</td><td style="vertical-align:top;">:</td><td><div>True</div></td></tr><tr><td style="font-weight:bold;vertical-align:top;">local_hosts</td><td style="vertical-align:top;">:</td><td><div><table><tr><td><div>fe80::d0d0:223e:d3a5:166a%11</div></td></tr><tr><td><div>169.233.80.143</div></td></tr><tr><td><div>::ffff:127.0.0.1</div></td></tr><tr><td><div>::1</div></td></tr><tr><td><div>fe80::200:5efe:169.233.80.143%20</div></td></tr><tr><td><div>fe80::1c3a:5789:3ace:b57b%13</div></td></tr><tr><td><div>Star_Destroyer</div></td></tr><tr><td><div>25.51.6.231</div></td></tr><tr><td><div>Star_Destroyer.ucsc.edu</div></td></tr><tr><td><div>2620:9b::1933:6e7</div></td></tr><tr><td><div>127.0.0.1</div></td></tr></table></div></td></tr><tr><td style="font-weight:bold;vertical-align:top;">web2py_version</td><td style="vertical-align:top;">:</td><td><div>2.16.1-stable+timestamp.2017.11.14.05.54.25</div></td></tr></table></div></td></tr><tr><td style="font-weight:bold;vertical-align:top;">is_https</td><td style="vertical-align:top;">:</td><td><div>False</div></td></tr><tr><td style="font-weight:bold;vertical-align:top;">is_local</td><td style="vertical-align:top;">:</td><td><div>True</div></td></tr><tr><td style="font-weight:bold;vertical-align:top;">is_restful</td><td style="vertical-align:top;">:</td><td><div>False</div></td></tr><tr><td style="font-weight:bold;vertical-align:top;">is_scheduler</td><td style="vertical-align:top;">:</td><td><div>False</div></td></tr><tr><td style="font-weight:bold;vertical-align:top;">is_shell</td><td style="vertical-align:top;">:</td><td><div>False</div></td></tr><tr><td style="font-weight:bold;vertical-align:top;">now</td><td style="vertical-align:top;">:</td><td><div>datetime.datetime(2018, 6, 7, 20, 58, 11, 2000)</div></td></tr><tr><td style="font-weight:bold;vertical-align:top;">url</td><td style="vertical-align:top;">:</td><td><div>/RivalsTourneyWatch/api/get_tourneys</div></td></tr><tr><td style="font-weight:bold;vertical-align:top;">utcnow</td><td style="vertical-align:top;">:</td><td><div>datetime.datetime(2018, 6, 8, 3, 58, 11, 2000)</div></td></tr><tr><td style="font-weight:bold;vertical-align:top;">wsgi</td><td style="vertical-align:top;">:</td><td><div>&lt;gluon.main.LazyWSGI object at 0x000000000B4EBCC0&gt;</div></td></tr></table></div>'
tRp60
sS'frames'
p61
(lp62
(dp63
S'file'
p64
S'C:\\Users\\Chubblezap\\web2py\\gluon\\restricted.py'
p65
sS'dump'
p66
(dp67
S'environment'
p68
S"{'A': <class 'gluon.html.A'>, 'ANY_OF': <class 'gluon.validators.ANY_OF'>, 'ASSIGNJS': <function ASSIGNJS>, 'AppConfig': <function AppConfig>, 'Auth': <class 'gluon.tools.Auth'>, 'B': <class 'gluon.html.B'>, 'BEAUTIFY': <class 'gluon.html.BEAUTIFY'>, 'BODY': <class 'gluon.html.BODY'>, 'BR': <class 'gluon.html.BR'>, 'BUTTON': <class 'gluon.html.BUTTON'>, ...}"
p69
sS'ccode'
p70
S'<code object <module> at 000000000AE93530, file ...s\\RivalsTourneyWatch\\controllers/api.py", line 1>'
p71
ssS'lnum'
p72
I219
sS'lines'
p73
(dp74
I214
S'    if environment is None:'
p75
sI215
S'        environment = {}'
p76
sI216
S"    environment['__file__'] = layer"
p77
sI217
S"    environment['__name__'] = '__restricted__'"
p78
sI218
S'    try:'
p79
sI219
S'        exec(ccode, environment)'
p80
sI220
S'    except HTTP:'
p81
sI221
S'        raise'
p82
sI222
S'    except RestrictedError:'
p83
sI223
S'        # do not encapsulate (obfuscate) the original RestrictedError'
p84
ssS'call'
p85
S'(ccode=<code object <module> at 000000000AE93530, file ...s\\RivalsTourneyWatch\\controllers/api.py", line 1>, environment={\'A\': <class \'gluon.html.A\'>, \'ANY_OF\': <class \'gluon.validators.ANY_OF\'>, \'ASSIGNJS\': <function ASSIGNJS>, \'AppConfig\': <function AppConfig>, \'Auth\': <class \'gluon.tools.Auth\'>, \'B\': <class \'gluon.html.B\'>, \'BEAUTIFY\': <class \'gluon.html.BEAUTIFY\'>, \'BODY\': <class \'gluon.html.BODY\'>, \'BR\': <class \'gluon.html.BR\'>, \'BUTTON\': <class \'gluon.html.BUTTON\'>, ...}, layer=r\'C:\\Users\\Chubblezap\\web2py\\applications\\RivalsTourneyWatch\\controllers/api.py\', scode=<code object <module> at 000000000AE93530, file ...s\\RivalsTourneyWatch\\controllers/api.py", line 1>)'
p86
sS'func'
p87
S'restricted'
p88
sa(dp89
g64
S'C:\\Users\\Chubblezap\\web2py\\applications\\RivalsTourneyWatch\\controllers\\api.py'
p90
sg66
(dp91
sg72
I44
sg73
(dp92
I33
S"                        if (pl['id'] == pID):"
p93
sI34
S"                            pTag = pl['gamerTag']"
p94
sI35
S"                            pName = pl['name']"
p95
sI36
S"                    standings.append(dict([('standing', pStand), ('tag', pTag), ('name', pName)]))"
p96
sI37
S"                sDicts.append(dict([('name', name), ('standings', standings)]))"
p97
sI38
S''
sI39
S"    tDict['subleagues'] = sDicts"
p98
sI40
S'    return response.json(dict('
p99
sI41
S'        tDict=tDict'
p100
sI42
S'    ))'
p101
ssg85
S'()'
p102
sg87
S'<module>'
p103
sa(dp104
g64
S'C:\\Users\\Chubblezap\\web2py\\gluon\\globals.py'
p105
sg66
(dp106
S'self'
p107
S'undefined'
p108
sS'f'
S'<function get_tourneys>'
p109
ssg72
I419
sg73
(dp110
I416
S'        self.menu = []             # used by the default view layout'
p111
sI417
S'        self.files = []            # used by web2py_ajax.html'
p112
sI418
S'        self._vars = None'
p113
sI419
S'        self._caller = lambda f: f()'
p114
sI420
S'        self._view_environment = None'
p115
sI421
S'        self._custom_commit = None'
p116
sI422
S'        self._custom_rollback = None'
p117
sI423
S"        self.generic_patterns = ['*']"
p118
sI414
S"        self.flash = ''            # used by the default view layout"
p119
sI415
S'        self.meta = Storage()      # used by web2py_ajax.html'
p120
ssg85
S'(f=<function get_tourneys>)'
p121
sg87
S'<lambda>'
p122
sa(dp123
g64
S'C:\\Users\\Chubblezap\\web2py\\applications\\RivalsTourneyWatch\\controllers\\api.py'
p124
sg66
(dp125
S'json.loads'
p126
S'<function loads>'
p127
sS'global json'
p128
S"<module 'json' from 'C:\\Users\\Chubblezap\\AppData...\\Programs\\Python\\Anaconda\\lib\\json\\__init__.pyc'>"
p129
sS's'
S'4145'
p130
sS'global fetch'
p131
S'<function fetch>'
p132
sS'playersJSON'
p133
g108
ssg72
I28
sg73
(dp134
I32
S"                    for pl in playersJSON['items']['entities']['player']:"
p135
sI23
S'        standings = []'
p136
sI24
S"        for i in subleaguesJSON['entities']['tournament']: # Get the subleague titles and slugs, used for getting events"
p137
sI25
S"            if (i['id'] == s):"
p138
sI26
S"                name = i['name']"
p139
sI27
S"                subslug = i['slug']"
p140
sI28
S'                playersJSON = json.loads(fetch("https://api.smash.gg/standing/tournament/"+s+"/page?expand[]=participants&expand[]=standingPoints&mutations[]=playerData"))'
p141
sI29
S"                for p in playersJSON['items']['entities']['standing']:"
p142
sI30
S"                    pStand = p['standing']"
p143
sI31
S"                    pID = p['entityId']"
p144
ssg85
S'()'
p145
sg87
S'get_tourneys'
p146
sasS'pyver'
p147
S'Python 2.7.14: C:\\Users\\Chubblezap\\AppData\\Local\\Programs\\Python\\Anaconda\\python.exe (prefix: C:\\Users\\Chubblezap\\AppData\\Local\\Programs\\Python\\Anaconda)'
p148
sS'session'
p149
g59
(S's\x1a\x00\x00\x00<div><table></table></div>'
tRp150
sS'etype'
p151
S"<type 'exceptions.TypeError'>"
p152
sS'date'
p153
S'Thu Jun 07 20:58:11 2018'
p154
sS'response'
p155
g59
(S's\xe7\x1d\x00\x00<div><table><tr><td style="font-weight:bold;vertical-align:top;">body</td><td style="vertical-align:top;">:</td><td><div>&lt;cStringIO.StringO object at 0x000000000B4EBDC0&gt;</div></td></tr><tr><td style="font-weight:bold;vertical-align:top;">cookies</td><td style="vertical-align:top;">:</td><td><div><table><tr><td style="font-weight:bold;vertical-align:top;">session_id_rivalstourneywatch</td><td style="vertical-align:top;">:</td><td><div>3:bb017aec-6934-45a7-b0d1-24117cd39c3e<table><tr><td style="font-weight:bold;vertical-align:top;">comment</td><td style="vertical-align:top;">:</td><td><div></div></td></tr><tr><td style="font-weight:bold;vertical-align:top;">domain</td><td style="vertical-align:top;">:</td><td><div></div></td></tr><tr><td style="font-weight:bold;vertical-align:top;">expires</td><td style="vertical-align:top;">:</td><td><div></div></td></tr><tr><td style="font-weight:bold;vertical-align:top;">httponly</td><td style="vertical-align:top;">:</td><td><div></div></td></tr><tr><td style="font-weight:bold;vertical-align:top;">max-age</td><td style="vertical-align:top;">:</td><td><div></div></td></tr><tr><td style="font-weight:bold;vertical-align:top;">path</td><td style="vertical-align:top;">:</td><td><div>/</div></td></tr><tr><td style="font-weight:bold;vertical-align:top;">secure</td><td style="vertical-align:top;">:</td><td><div></div></td></tr><tr><td style="font-weight:bold;vertical-align:top;">version</td><td style="vertical-align:top;">:</td><td><div></div></td></tr></table></div></td></tr></table></div></td></tr><tr><td style="font-weight:bold;vertical-align:top;">delimiters</td><td style="vertical-align:top;">:</td><td><div><table><tr><td><div>{{</div></td></tr><tr><td><div>}}</div></td></tr></table></div></td></tr><tr><td style="font-weight:bold;vertical-align:top;">files</td><td style="vertical-align:top;">:</td><td><div><table></table></div></td></tr><tr><td style="font-weight:bold;vertical-align:top;">flash</td><td style="vertical-align:top;">:</td><td><div></div></td></tr><tr><td style="font-weight:bold;vertical-align:top;">form_label_separator</td><td style="vertical-align:top;">:</td><td><div></div></td></tr><tr><td style="font-weight:bold;vertical-align:top;">formstyle</td><td style="vertical-align:top;">:</td><td><div>bootstrap3_inline</div></td></tr><tr><td style="font-weight:bold;vertical-align:top;">generic_patterns</td><td style="vertical-align:top;">:</td><td><div><table><tr><td><div>*</div></td></tr></table></div></td></tr><tr><td style="font-weight:bold;vertical-align:top;">google_analytics_id</td><td style="vertical-align:top;">:</td><td><div>None</div></td></tr><tr><td style="font-weight:bold;vertical-align:top;">headers</td><td style="vertical-align:top;">:</td><td><div><table><tr><td style="font-weight:bold;vertical-align:top;">X-Powered-By</td><td style="vertical-align:top;">:</td><td><div>web2py</div></td></tr></table></div></td></tr><tr><td style="font-weight:bold;vertical-align:top;">logo</td><td style="vertical-align:top;">:</td><td><div><a class="navbar-brand" href="http://www.web2py.com/" id="web2py-logo"><b>web<span>2</span>py</b>&trade;&nbsp;</a></div></td></tr><tr><td style="font-weight:bold;vertical-align:top;">menu</td><td style="vertical-align:top;">:</td><td><div><table><tr><td><div><table><tr><td><div>Home</div></td></tr><tr><td><div>False</div></td></tr><tr><td><div>/RivalsTourneyWatch</div></td></tr><tr><td><div><table></table></div></td></tr></table></div></td></tr><tr><td><div><table><tr><td><div>My Sites</div></td></tr><tr><td><div>False</div></td></tr><tr><td><div>/admin/site</div></td></tr></table></div></td></tr></table></div></td></tr><tr><td style="font-weight:bold;vertical-align:top;">meta</td><td style="vertical-align:top;">:</td><td><div><table><tr><td style="font-weight:bold;vertical-align:top;">author</td><td style="vertical-align:top;">:</td><td><div>Your Name &lt;you@example.com&gt;</div></td></tr><tr><td style="font-weight:bold;vertical-align:top;">description</td><td style="vertical-align:top;">:</td><td><div>a cool new app</div></td></tr><tr><td style="font-weight:bold;vertical-align:top;">generator</td><td style="vertical-align:top;">:</td><td><div>Web2py Web Framework</div></td></tr><tr><td style="font-weight:bold;vertical-align:top;">keywords</td><td style="vertical-align:top;">:</td><td><div><table><tr><td><div>web2py</div></td></tr><tr><td><div>python</div></td></tr><tr><td><div>framework</div></td></tr></table></div></td></tr></table></div></td></tr><tr><td style="font-weight:bold;vertical-align:top;">models_to_run</td><td style="vertical-align:top;">:</td><td><div><table><tr><td><div>^\\w+\\.py$</div></td></tr><tr><td><div>^api/\\w+\\.py$</div></td></tr><tr><td><div>^api/get_tourneys/\\w+\\.py$</div></td></tr></table></div></td></tr><tr><td style="font-weight:bold;vertical-align:top;">postprocessing</td><td style="vertical-align:top;">:</td><td><div><table></table></div></td></tr><tr><td style="font-weight:bold;vertical-align:top;">session_client</td><td style="vertical-align:top;">:</td><td><div>127.0.0.1</div></td></tr><tr><td style="font-weight:bold;vertical-align:top;">session_cookie_compression_level</td><td style="vertical-align:top;">:</td><td><div>None</div></td></tr><tr><td style="font-weight:bold;vertical-align:top;">session_cookie_expires</td><td style="vertical-align:top;">:</td><td><div>None</div></td></tr><tr><td style="font-weight:bold;vertical-align:top;">session_data_name</td><td style="vertical-align:top;">:</td><td><div>session_data_rivalstourneywatch</div></td></tr><tr><td style="font-weight:bold;vertical-align:top;">session_db_record_id</td><td style="vertical-align:top;">:</td><td><div>3L</div></td></tr><tr><td style="font-weight:bold;vertical-align:top;">session_db_table</td><td style="vertical-align:top;">:</td><td><div>&lt;Table web2py_session_RivalsTourneyWatch (id, locked, client_ip, created_datetime, modified_datetime, unique_key, session_data)&gt;</div></td></tr><tr><td style="font-weight:bold;vertical-align:top;">session_db_unique_key</td><td style="vertical-align:top;">:</td><td><div>bb017aec-6934-45a7-b0d1-24117cd39c3e</div></td></tr><tr><td style="font-weight:bold;vertical-align:top;">session_hash</td><td style="vertical-align:top;">:</td><td><div>c0762cbf4baf7f9af97c051e7fcb8083</div></td></tr><tr><td style="font-weight:bold;vertical-align:top;">session_id</td><td style="vertical-align:top;">:</td><td><div>3:bb017aec-6934-45a7-b0d1-24117cd39c3e</div></td></tr><tr><td style="font-weight:bold;vertical-align:top;">session_id_name</td><td style="vertical-align:top;">:</td><td><div>session_id_rivalstourneywatch</div></td></tr><tr><td style="font-weight:bold;vertical-align:top;">session_masterapp</td><td style="vertical-align:top;">:</td><td><div>RivalsTourneyWatch</div></td></tr><tr><td style="font-weight:bold;vertical-align:top;">session_new</td><td style="vertical-align:top;">:</td><td><div>False</div></td></tr><tr><td style="font-weight:bold;vertical-align:top;">session_storage_type</td><td style="vertical-align:top;">:</td><td><div>db</div></td></tr><tr><td style="font-weight:bold;vertical-align:top;">status</td><td style="vertical-align:top;">:</td><td><div>200</div></td></tr><tr><td style="font-weight:bold;vertical-align:top;">subtitle</td><td style="vertical-align:top;">:</td><td><div></div></td></tr><tr><td style="font-weight:bold;vertical-align:top;">title</td><td style="vertical-align:top;">:</td><td><div>Rivalstourneywatch</div></td></tr><tr><td style="font-weight:bold;vertical-align:top;">view</td><td style="vertical-align:top;">:</td><td><div>api/get_tourneys.html</div></td></tr></table></div>'
tRp156
sS'locals'
p157
(dp158
S'standings'
p159
S'[]'
p160
sS'name'
p161
S"u'North America'"
p162
sS'subleagueIDs'
p163
S'[4145, 4146]'
p164
sS'subslug'
p165
S"u'tournament/north-america'"
p166
sS'i'
S"{u'addrState': None, u'approved': False, u'attendeeContactInfo': None, u'attendeeFieldConfig': None, u'attendeeLocationInfo': None, u'attendeeRequirements': None, u'city': None, u'completedAt': None, u'contactEmail': None, u'contactInfo': None, ...}"
p167
sS'leagueJSON'
p168
S"{u'actionRecords': [], u'entities': {u'entityContainerTag': [{u'containerId': 4144, u'containerType': u'tournament', u'entityId': 4145, u'entityType': u'tournament', u'id': 657}, {u'containerId': 4144, u'containerType': u'tournament', u'entityId': 4146, u'entityType': u'tournament', u'id': 658}], u'tournament': {u'addrState': None, u'approved': True, u'attendeeContactInfo': None, u'attendeeFieldConfig': {u'nameFirst': {u'required': True, u'visible': True}, u'nameLast': {u'required': True, u'visible': True}}, u'attendeeLocationInfo': None, u'attendeeRequirements': None, u'city': None, u'completedAt': None, u'contactEmail': None, u'contactInfo': None, ...}}, u'result': 4144, u'resultEntity': u'tournament'}"
p169
sS'tDict'
p170
S"{'name': u'Rivals Championship Series'}"
p171
sS's'
S'4145'
p172
sS'subleaguesJSON'
p173
S"{u'actionRecords': [], u'entities': {u'entityContainerTag': [{u'containerId': 4145, u'containerType': u'tournament', u'entityId': 18766, u'entityType': u'event', u'id': 667}, {u'containerId': 4145, u'containerType': u'tournament', u'entityId': 18955, u'entityType': u'event', u'id': 669}, {u'containerId': 4145, u'containerType': u'tournament', u'entityId': 18957, u'entityType': u'event', u'id': 670}, {u'containerId': 4145, u'containerType': u'tournament', u'entityId': 19665, u'entityType': u'event', u'id': 712}, {u'containerId': 4145, u'containerType': u'tournament', u'entityId': 19666, u'entityType': u'event', u'id': 713}, {u'containerId': 4145, u'containerType': u'tournament', u'entityId': 15684, u'entityType': u'event', u'id': 714}, {u'containerId': 4145, u'containerType': u'tournament', u'entityId': 19070, u'entityType': u'event', u'id': 715}, {u'containerId': 4145, u'containerType': u'tournament', u'entityId': 19667, u'entityType': u'event', u'id': 772}, {u'containerId': 4145, u'containerType': u'tournament', u'entityId': 20928, u'entityType': u'event', u'id': 790}, {u'containerId': 4145, u'containerType': u'tournament', u'entityId': 20929, u'entityType': u'event', u'id': 791}, {u'containerId': 4145, u'containerType': u'tournament', u'entityId': 21301, u'entityType': u'event', u'id': 792}, {u'containerId': 4145, u'containerType': u'tournament', u'entityId': 20930, u'entityType': u'event', u'id': 793}, {u'containerId': 4145, u'containerType': u'tournament', u'entityId': 21245, u'entityType': u'event', u'id': 813}, {u'containerId': 4145, u'containerType': u'tournament', u'entityId': 22354, u'entityType': u'event', u'id': 829}, {u'containerId': 4145, u'containerType': u'tournament', u'entityId': 22356, u'entityType': u'event', u'id': 830}, {u'containerId': 4145, u'containerType': u'tournament', u'entityId': 21545, u'entityType': u'event', u'id': 834}, {u'containerId': 4146, u'containerType': u'tournament', u'entityId': 18767, u'entityType': u'event', u'id': 668}, {u'containerId': 4146, u'containerType': u'tournament', u'entityId': 18956, u'entityType': u'event', u'id': 671}, {u'containerId': 4146, u'containerType': u'tournament', u'entityId': 18958, u'entityType': u'event', u'id': 672}, {u'containerId': 4146, u'containerType': u'tournament', u'entityId': 19668, u'entityType': u'event', u'id': 710}, ...], u'event': [{u'allowAutoReport': True, u'checkInBuffer': 900, u'checkInDuration': 0, u'checkInEnabled': False, u'completedAt': None, u'deadlineAction': None, u'deckDeadlineHandled': None, u'deckSubmissionDeadline': None, u'description': u'Rivals of Aether', u'enableSlippi': False, ...}, {u'allowAutoReport': True, u'checkInBuffer': 900, u'checkInDuration': 0, u'checkInEnabled': False, u'completedAt': None, u'deadlineAction': None, u'deckDeadlineHandled': None, u'deckSubmissionDeadline': None, u'description': None, u'enableSlippi': False, ...}, {u'allowAutoReport': True, u'checkInBuffer': 900, u'checkInDuration': 0, u'checkInEnabled': False, u'completedAt': None, u'deadlineAction': None, u'deckDeadlineHandled': None, u'deckSubmissionDeadline': None, u'description': None, u'enableSlippi': False, ...}, {u'allowAutoReport': True, u'checkInBuffer': 900, u'checkInDuration': 0, u'checkInEnabled': False, u'completedAt': None, u'deadlineAction': None, u'deckDeadlineHandled': None, u'deckSubmissionDeadline': None, u'description': None, u'enableSlippi': False, ...}, {u'allowAutoReport': True, u'checkInBuffer': 900, u'checkInDuration': 0, u'checkInEnabled': False, u'completedAt': None, u'deadlineAction': None, u'deckDeadlineHandled': None, u'deckSubmissionDeadline': None, u'description': None, u'enableSlippi': False, ...}, {u'allowAutoReport': None, u'checkInBuffer': 900, u'checkInDuration': 0, u'checkInEnabled': False, u'completedAt': None, u'deadlineAction': None, u'deckDeadlineHandled': None, u'deckSubmissionDeadline': None, u'description': u'Rivals of Aether Singles', u'enableSlippi': False, ...}, {u'allowAutoReport': True, u'checkInBuffer': 900, u'checkInDuration': 0, u'checkInEnabled': False, u'completedAt': None, u'deadlineAction': None, u'deckDeadlineHandled': None, u'deckSubmissionDeadline': None, u'description': u'Rivals of Aether Singles', u'enableSlippi': False, ...}, {u'allowAutoReport': True, u'checkInBuffer': 900, u'checkInDuration': 0, u'checkInEnabled': False, u'completedAt': None, u'deadlineAction': None, u'deckDeadlineHandled': None, u'deckSubmissionDeadline': None, u'description': None, u'enableSlippi': False, ...}, {u'allowAutoReport': True, u'checkInBuffer': 900, u'checkInDuration': 0, u'checkInEnabled': False, u'completedAt': None, u'deadlineAction': None, u'deckDeadlineHandled': None, u'deckSubmissionDeadline': None, u'description': None, u'enableSlippi': False, ...}, {u'allowAutoReport': True, u'checkInBuffer': 900, u'checkInDuration': 0, u'checkInEnabled': False, u'completedAt': None, u'deadlineAction': None, u'deckDeadlineHandled': None, u'deckSubmissionDeadline': None, u'description': None, u'enableSlippi': False, ...}, {u'allowAutoReport': True, u'checkInBuffer': 900, u'checkInDuration': 0, u'checkInEnabled': False, u'completedAt': None, u'deadlineAction': None, u'deckDeadlineHandled': None, u'deckSubmissionDeadline': None, u'description': u'', u'enableSlippi': False, ...}, {u'allowAutoReport': True, u'checkInBuffer': 900, u'checkInDuration': 0, u'checkInEnabled': False, u'completedAt': None, u'deadlineAction': None, u'deckDeadlineHandled': None, u'deckSubmissionDeadline': None, u'description': None, u'enableSlippi': False, ...}, {u'allowAutoReport': True, u'checkInBuffer': 900, u'checkInDuration': 0, u'checkInEnabled': False, u'completedAt': None, u'deadlineAction': None, u'deckDeadlineHandled': None, u'deckSubmissionDeadline': None, u'description': None, u'enableSlippi': False, ...}, {u'allowAutoReport': True, u'checkInBuffer': 900, u'checkInDuration': 0, u'checkInEnabled': False, u'completedAt': None, u'deadlineAction': None, u'deckDeadlineHandled': None, u'deckSubmissionDeadline': None, u'description': None, u'enableSlippi': False, ...}, {u'allowAutoReport': True, u'checkInBuffer': 900, u'checkInDuration': 0, u'checkInEnabled': False, u'completedAt': None, u'deadlineAction': None, u'deckDeadlineHandled': None, u'deckSubmissionDeadline': None, u'description': None, u'enableSlippi': False, ...}, {u'allowAutoReport': True, u'checkInBuffer': 900, u'checkInDuration': 0, u'checkInEnabled': False, u'completedAt': None, u'deadlineAction': None, u'deckDeadlineHandled': None, u'deckSubmissionDeadline': None, u'description': u'Rivals of Aether Singles', u'enableSlippi': False, ...}, {u'allowAutoReport': True, u'checkInBuffer': 900, u'checkInDuration': 0, u'checkInEnabled': False, u'completedAt': None, u'deadlineAction': None, u'deckDeadlineHandled': None, u'deckSubmissionDeadline': None, u'description': u'Rivals of Aether', u'enableSlippi': False, ...}, {u'allowAutoReport': True, u'checkInBuffer': 900, u'checkInDuration': 0, u'checkInEnabled': False, u'completedAt': None, u'deadlineAction': None, u'deckDeadlineHandled': None, u'deckSubmissionDeadline': None, u'description': None, u'enableSlippi': False, ...}, {u'allowAutoReport': True, u'checkInBuffer': 900, u'checkInDuration': 0, u'checkInEnabled': False, u'completedAt': None, u'deadlineAction': None, u'deckDeadlineHandled': None, u'deckSubmissionDeadline': None, u'description': None, u'enableSlippi': False, ...}, {u'allowAutoReport': True, u'checkInBuffer': 900, u'checkInDuration': 0, u'checkInEnabled': False, u'completedAt': None, u'deadlineAction': None, u'deckDeadlineHandled': None, u'deckSubmissionDeadline': None, u'description': None, u'enableSlippi': False, ...}, ...], u'tournament': [{u'addrState': None, u'approved': True, u'attendeeContactInfo': None, u'attendeeFieldConfig': {u'nameFirst': {u'required': True, u'visible': True}, u'nameLast': {u'required': True, u'visible': True}}, u'attendeeLocationInfo': None, u'attendeeRequirements': None, u'city': None, u'completedAt': None, u'contactEmail': None, u'contactInfo': None, ...}, {u'addrState': None, u'approved': False, u'attendeeContactInfo': None, u'attendeeFieldConfig': None, u'attendeeLocationInfo': None, u'attendeeRequirements': None, u'city': None, u'completedAt': None, u'contactEmail': None, u'contactInfo': None, ...}, {u'addrState': None, u'approved': False, u'attendeeContactInfo': None, u'attendeeFieldConfig': None, u'attendeeLocationInfo': None, u'attendeeRequirements': None, u'city': None, u'completedAt': None, u'contactEmail': None, u'contactInfo': None, ...}]}, u'result': 4144, u'resultEntity': u'tournament'}"
p174
sS'sDicts'
p175
S'[]'
p176
sS't'
S"'rivals-championship-series'"
p177
sssS'traceback'
p178
S'Traceback (most recent call last):\n  File "C:\\Users\\Chubblezap\\web2py\\gluon\\restricted.py", line 219, in restricted\n    exec(ccode, environment)\n  File "C:\\Users\\Chubblezap\\web2py\\applications\\RivalsTourneyWatch\\controllers/api.py", line 44, in <module>\n  File "C:\\Users\\Chubblezap\\web2py\\gluon\\globals.py", line 419, in <lambda>\n    self._caller = lambda f: f()\n  File "C:\\Users\\Chubblezap\\web2py\\applications\\RivalsTourneyWatch\\controllers/api.py", line 28, in get_tourneys\n    playersJSON = json.loads(fetch("https://api.smash.gg/standing/tournament/"+s+"/page?expand[]=participants&expand[]=standingPoints&mutations[]=playerData"))\nTypeError: cannot concatenate \'str\' and \'int\' objects\n'
p179
s.